; Function Attrs: noreturn nounwind uwtable
define hidden void @lj_trace_err_info(ptr noundef readonly captures(none) %0, i32 noundef %1) local_unnamed_addr #0 {
  %3 = getelementptr inbounds nuw i8, ptr %0, i64 128
  %4 = load ptr, ptr %3, align 8, !tbaa !7
  %5 = getelementptr inbounds nuw i8, ptr %4, i64 40
  %6 = load ptr, ptr %5, align 8, !tbaa !28
  %7 = getelementptr inbounds nuw i8, ptr %6, i64 8
  store ptr %7, ptr %5, align 8, !tbaa !28
  %8 = sitofp i32 %1 to double
  store double %8, ptr %6, align 8, !tbaa !4
  %9 = load ptr, ptr %3, align 8, !tbaa !7
  tail call void @lj_err_throw(ptr noundef %9, i32 noundef 2) #13
  unreachable
}